target datalayout = "e-m:e-p270:32:32-p271:32:32-p272:64:64-i64:64-i128:128-f80:128-n8:16:32:64-S128"
target triple = "x86_64-pc-linux-gnu"

%struct.zbee_nwk_packet = type { i8, i8, i8, i8, i8, i8, i16, i8, i16, i16, i64, i64, i8, i8, i8, i8, i8, i8, i8, i16, ptr }

@hf_zbee_apf_count = internal global i32 0, align 4
@hf_zbee_apf_type = internal global i32 0, align 4
@ett_zbee_apf = internal global i32 0, align 4
@.str.397 = private unnamed_addr constant [29 x i8] c"ZigBee Application Framework\00", align 1
@proto_zbee_apf = internal global i32 0, align 4

; Function Attrs: null_pointer_is_valid sspstrong uwtable
define internal i32 @zbee_apf_transaction_len(ptr noundef %0, i32 noundef %1, i8 noundef zeroext %2) #0 {
  %4 = alloca i32, align 4
  %5 = alloca ptr, align 8
  %6 = alloca i32, align 4
  %7 = alloca i8, align 1
  %8 = alloca i8, align 1
  %9 = alloca i8, align 1
  %10 = alloca i32, align 4
  %11 = alloca i32, align 4
  store ptr %0, ptr %5, align 8
  store i32 %1, ptr %6, align 4
  store i8 %2, ptr %7, align 1
  %12 = load i8, ptr %7, align 1
  %13 = zext i8 %12 to i32
  %14 = icmp eq i32 %13, 1
  br i1 %14, label %15, label %70

15:                                               ; preds = %3
  call void @llvm.lifetime.start.p0(i64 1, ptr %8) #9
  %16 = load ptr, ptr %5, align 8
  %17 = load i32, ptr %6, align 4
  %18 = add i32 %17, 1
  %19 = call zeroext i8 @tvb_get_uint8(ptr noundef %16, i32 noundef %18)
  %20 = zext i8 %19 to i32
  %21 = call i32 @zbee_get_bit_field(i32 noundef %20, i32 noundef 15)
  %22 = trunc i32 %21 to i8
  store i8 %22, ptr %8, align 1
  call void @llvm.lifetime.start.p0(i64 1, ptr %9) #9
  %23 = load ptr, ptr %5, align 8
  %24 = load i32, ptr %6, align 4
  %25 = add i32 %24, 1
  %26 = call zeroext i8 @tvb_get_uint8(ptr noundef %23, i32 noundef %25)
  %27 = zext i8 %26 to i32
  %28 = call i32 @zbee_get_bit_field(i32 noundef %27, i32 noundef 240)
  %29 = trunc i32 %28 to i8
  store i8 %29, ptr %9, align 1
  call void @llvm.lifetime.start.p0(i64 4, ptr %10) #9
  store i32 4, ptr %10, align 4
  %30 = load i8, ptr %8, align 1
  %31 = zext i8 %30 to i32
  switch i32 %31, label %41 [
    i32 9, label %32
    i32 10, label %32
    i32 8, label %36
    i32 1, label %39
    i32 5, label %39
    i32 2, label %39
    i32 6, label %39
    i32 4, label %40
  ]

32:                                               ; preds = %15, %15
  %33 = load i32, ptr %10, align 4
  %34 = add i32 %33, 1
  store i32 %34, ptr %10, align 4
  %35 = load i32, ptr %10, align 4
  store i32 %35, ptr %4, align 4
  store i32 1, ptr %11, align 4
  br label %69

36:                                               ; preds = %15
  %37 = load i32, ptr %10, align 4
  %38 = add i32 %37, 1
  store i32 %38, ptr %10, align 4
  br label %43

39:                                               ; preds = %15, %15, %15, %15
  br label %43

40:                                               ; preds = %15
  br label %41

41:                                               ; preds = %15, %40
  %42 = load i32, ptr %10, align 4
  store i32 %42, ptr %4, align 4
  store i32 1, ptr %11, align 4
  br label %69

43:                                               ; preds = %39, %36
  %44 = load i8, ptr %9, align 1
  %45 = zext i8 %44 to i32
  switch i32 %45, label %66 [
    i32 12, label %46
    i32 13, label %46
    i32 3, label %49
    i32 4, label %49
    i32 11, label %49
    i32 1, label %52
    i32 2, label %52
    i32 14, label %55
    i32 15, label %55
    i32 0, label %65
  ]

46:                                               ; preds = %43, %43
  %47 = load i32, ptr %10, align 4
  %48 = add i32 %47, 4
  store i32 %48, ptr %10, align 4
  br label %67

49:                                               ; preds = %43, %43, %43
  %50 = load i32, ptr %10, align 4
  %51 = add i32 %50, 2
  store i32 %51, ptr %10, align 4
  br label %67

52:                                               ; preds = %43, %43
  %53 = load i32, ptr %10, align 4
  %54 = add i32 %53, 1
  store i32 %54, ptr %10, align 4
  br label %67

55:                                               ; preds = %43, %43
  %56 = load ptr, ptr %5, align 8
  %57 = load i32, ptr %6, align 4
  %58 = load i32, ptr %10, align 4
  %59 = add i32 %57, %58
  %60 = call zeroext i8 @tvb_get_uint8(ptr noundef %56, i32 noundef %59)
  %61 = zext i8 %60 to i32
  %62 = add i32 %61, 1
  %63 = load i32, ptr %10, align 4
  %64 = add i32 %63, %62
  store i32 %64, ptr %10, align 4
  br label %67

65:                                               ; preds = %43
  br label %66

66:                                               ; preds = %43, %65
  br label %67

67:                                               ; preds = %66, %55, %52, %49, %46
  %68 = load i32, ptr %10, align 4
  store i32 %68, ptr %4, align 4
  store i32 1, ptr %11, align 4
  br label %69

69:                                               ; preds = %67, %41, %32
  call void @llvm.lifetime.end.p0(i64 4, ptr %10) #9
  call void @llvm.lifetime.end.p0(i64 1, ptr %9) #9
  call void @llvm.lifetime.end.p0(i64 1, ptr %8) #9
  br label %77

70:                                               ; preds = %3
  %71 = load ptr, ptr %5, align 8
  %72 = load i32, ptr %6, align 4
  %73 = add i32 %72, 1
  %74 = call zeroext i8 @tvb_get_uint8(ptr noundef %71, i32 noundef %73)
  %75 = zext i8 %74 to i32
  %76 = add i32 %75, 2
  store i32 %76, ptr %4, align 4
  br label %77

77:                                               ; preds = %70, %69
  %78 = load i32, ptr %4, align 4
  ret i32 %78
}

; Function Attrs: null_pointer_is_valid sspstrong uwtable
define internal i32 @dissect_zbee_apf(ptr noundef %0, ptr noundef %1, ptr noundef %2, ptr noundef %3) #0 {
  %5 = alloca ptr, align 8
  %6 = alloca ptr, align 8
  %7 = alloca ptr, align 8
  %8 = alloca ptr, align 8
  %9 = alloca ptr, align 8
  %10 = alloca ptr, align 8
  %11 = alloca i8, align 1
  %12 = alloca i8, align 1
  %13 = alloca i32, align 4
  %14 = alloca i32, align 4
  %15 = alloca ptr, align 8
  %16 = alloca ptr, align 8
  %17 = alloca ptr, align 8
  %18 = alloca i32, align 4
  store ptr %0, ptr %5, align 8
  store ptr %1, ptr %6, align 8
  store ptr %2, ptr %7, align 8
  store ptr %3, ptr %8, align 8
  call void @llvm.lifetime.start.p0(i64 8, ptr %9) #9
  call void @llvm.lifetime.start.p0(i64 8, ptr %10) #9
  call void @llvm.lifetime.start.p0(i64 1, ptr %11) #9
  call void @llvm.lifetime.start.p0(i64 1, ptr %12) #9
  call void @llvm.lifetime.start.p0(i64 4, ptr %13) #9
  store i32 0, ptr %13, align 4
  call void @llvm.lifetime.start.p0(i64 4, ptr %14) #9
  call void @llvm.lifetime.start.p0(i64 8, ptr %15) #9
  call void @llvm.lifetime.start.p0(i64 8, ptr %16) #9
  store ptr null, ptr %16, align 8
  call void @llvm.lifetime.start.p0(i64 8, ptr %17) #9
  %19 = load ptr, ptr %8, align 8
  store ptr %19, ptr %17, align 8
  %20 = load ptr, ptr %17, align 8
  %21 = icmp ne ptr %20, null
  br i1 %21, label %22, label %26

22:                                               ; preds = %4
  %23 = load ptr, ptr %17, align 8
  %24 = getelementptr inbounds nuw %struct.zbee_nwk_packet, ptr %23, i32 0, i32 20
  %25 = load ptr, ptr %24, align 8
  store ptr %25, ptr %16, align 8
  br label %26

26:                                               ; preds = %22, %4
  %27 = load ptr, ptr %7, align 8
  %28 = load i32, ptr @proto_zbee_apf, align 4
  %29 = load ptr, ptr %5, align 8
  %30 = load ptr, ptr %5, align 8
  %31 = call i32 @tvb_captured_length(ptr noundef %30)
  %32 = call ptr (ptr, i32, ptr, i32, i32, ptr, ...) @proto_tree_add_protocol_format(ptr noundef %27, i32 noundef %28, ptr noundef %29, i32 noundef 0, i32 noundef %31, ptr noundef @.str.397)
  store ptr %32, ptr %10, align 8
  %33 = load ptr, ptr %10, align 8
  %34 = load i32, ptr @ett_zbee_apf, align 4
  %35 = call ptr @proto_item_add_subtree(ptr noundef %33, i32 noundef %34)
  store ptr %35, ptr %9, align 8
  %36 = load ptr, ptr %5, align 8
  %37 = load i32, ptr %13, align 4
  %38 = call zeroext i8 @tvb_get_uint8(ptr noundef %36, i32 noundef %37)
  %39 = zext i8 %38 to i32
  %40 = call i32 @zbee_get_bit_field(i32 noundef %39, i32 noundef 15)
  %41 = trunc i32 %40 to i8
  store i8 %41, ptr %11, align 1
  %42 = load ptr, ptr %5, align 8
  %43 = load i32, ptr %13, align 4
  %44 = call zeroext i8 @tvb_get_uint8(ptr noundef %42, i32 noundef %43)
  %45 = zext i8 %44 to i32
  %46 = call i32 @zbee_get_bit_field(i32 noundef %45, i32 noundef 240)
  %47 = trunc i32 %46 to i8
  store i8 %47, ptr %12, align 1
  %48 = load ptr, ptr %9, align 8
  %49 = load i32, ptr @hf_zbee_apf_count, align 4
  %50 = load ptr, ptr %5, align 8
  %51 = load i32, ptr %13, align 4
  %52 = load i8, ptr %11, align 1
  %53 = zext i8 %52 to i32
  %54 = call ptr @proto_tree_add_uint(ptr noundef %48, i32 noundef %49, ptr noundef %50, i32 noundef %51, i32 noundef 1, i32 noundef %53)
  %55 = load ptr, ptr %9, align 8
  %56 = load i32, ptr @hf_zbee_apf_type, align 4
  %57 = load ptr, ptr %5, align 8
  %58 = load i32, ptr %13, align 4
  %59 = load i8, ptr %12, align 1
  %60 = zext i8 %59 to i32
  %61 = call ptr @proto_tree_add_uint(ptr noundef %55, i32 noundef %56, ptr noundef %57, i32 noundef %58, i32 noundef 1, i32 noundef %60)
  %62 = load i32, ptr %13, align 4
  %63 = add i32 %62, 1
  store i32 %63, ptr %13, align 4
  %64 = load ptr, ptr %16, align 8
  %65 = icmp eq ptr %64, null
  br i1 %65, label %66, label %67

66:                                               ; preds = %26
  br label %95

67:                                               ; preds = %26
  store i32 0, ptr %14, align 4
  br label %68

68:                                               ; preds = %91, %67
  %69 = load i32, ptr %14, align 4
  %70 = load i8, ptr %11, align 1
  %71 = zext i8 %70 to i32
  %72 = icmp ult i32 %69, %71
  br i1 %72, label %73, label %94

73:                                               ; preds = %68
  call void @llvm.lifetime.start.p0(i64 4, ptr %18) #9
  %74 = load ptr, ptr %5, align 8
  %75 = load i32, ptr %13, align 4
  %76 = load i8, ptr %12, align 1
  %77 = call i32 @zbee_apf_transaction_len(ptr noundef %74, i32 noundef %75, i8 noundef zeroext %76)
  store i32 %77, ptr %18, align 4
  %78 = load ptr, ptr %5, align 8
  %79 = load i32, ptr %13, align 4
  %80 = load i32, ptr %18, align 4
  %81 = call ptr @tvb_new_subset_length(ptr noundef %78, i32 noundef %79, i32 noundef %80)
  store ptr %81, ptr %15, align 8
  %82 = load ptr, ptr %16, align 8
  %83 = load ptr, ptr %15, align 8
  %84 = load ptr, ptr %6, align 8
  %85 = load ptr, ptr %7, align 8
  %86 = load ptr, ptr %8, align 8
  %87 = call i32 @call_dissector_with_data(ptr noundef %82, ptr noundef %83, ptr noundef %84, ptr noundef %85, ptr noundef %86)
  %88 = load i32, ptr %18, align 4
  %89 = load i32, ptr %13, align 4
  %90 = add i32 %89, %88
  store i32 %90, ptr %13, align 4
  call void @llvm.lifetime.end.p0(i64 4, ptr %18) #9
  br label %91

91:                                               ; preds = %73
  %92 = load i32, ptr %14, align 4
  %93 = add i32 %92, 1
  store i32 %93, ptr %14, align 4
  br label %68, !llvm.loop !8

94:                                               ; preds = %68
  br label %95

95:                                               ; preds = %94, %66
  %96 = load i32, ptr %13, align 4
  %97 = load ptr, ptr %5, align 8
  %98 = call i32 @tvb_captured_length(ptr noundef %97)
  %99 = icmp ult i32 %96, %98
  br i1 %99, label %100, label %108

100:                                              ; preds = %95
  %101 = load ptr, ptr %5, align 8
  %102 = load i32, ptr %13, align 4
  %103 = call ptr @tvb_new_subset_remaining(ptr noundef %101, i32 noundef %102)
  store ptr %103, ptr %15, align 8
  %104 = load ptr, ptr %15, align 8
  %105 = load ptr, ptr %6, align 8
  %106 = load ptr, ptr %7, align 8
  %107 = call i32 @call_data_dissector(ptr noundef %104, ptr noundef %105, ptr noundef %106)
  br label %108

108:                                              ; preds = %100, %95
  %109 = load ptr, ptr %5, align 8
  %110 = call i32 @tvb_captured_length(ptr noundef %109)
  call void @llvm.lifetime.end.p0(i64 8, ptr %17) #9
  call void @llvm.lifetime.end.p0(i64 8, ptr %16) #9
  call void @llvm.lifetime.end.p0(i64 8, ptr %15) #9
  call void @llvm.lifetime.end.p0(i64 4, ptr %14) #9
  call void @llvm.lifetime.end.p0(i64 4, ptr %13) #9
  call void @llvm.lifetime.end.p0(i64 1, ptr %12) #9
  call void @llvm.lifetime.end.p0(i64 1, ptr %11) #9
  call void @llvm.lifetime.end.p0(i64 8, ptr %10) #9
  call void @llvm.lifetime.end.p0(i64 8, ptr %9) #9
  ret i32 %110
}