; Function Attrs: null_pointer_is_valid sspstrong uwtable
define internal i32 @dissect_zbee_apf(ptr noundef %0, ptr noundef %1, ptr noundef %2, ptr noundef %3) #0 {
  %.not = icmp eq ptr %3, null
  br i1 %.not, label %8, label %5

5:                                                ; preds = %4
  %6 = getelementptr inbounds nuw i8, ptr %3, i64 48
  %7 = load ptr, ptr %6, align 8
  br label %8

8:                                                ; preds = %5, %4
  %.045 = phi ptr [ %7, %5 ], [ null, %4 ]
  %9 = load i32, ptr @proto_zbee_apf, align 4
  %10 = tail call i32 @tvb_captured_length(ptr noundef %0)
  %11 = tail call ptr (ptr, i32, ptr, i32, i32, ptr, ...) @proto_tree_add_protocol_format(ptr noundef %2, i32 noundef %9, ptr noundef %0, i32 noundef 0, i32 noundef %10, ptr noundef nonnull @.str.397)
  %12 = load i32, ptr @ett_zbee_apf, align 4
  %13 = tail call ptr @proto_item_add_subtree(ptr noundef %11, i32 noundef %12)
  %14 = tail call zeroext i8 @tvb_get_uint8(ptr noundef %0, i32 noundef 0)
  %15 = zext i8 %14 to i32
  %16 = tail call i32 @zbee_get_bit_field(i32 noundef %15, i32 noundef 15)
  %17 = tail call zeroext i8 @tvb_get_uint8(ptr noundef %0, i32 noundef 0)
  %18 = zext i8 %17 to i32
  %19 = tail call i32 @zbee_get_bit_field(i32 noundef %18, i32 noundef 240)
  %.fr = freeze i32 %19
  %20 = load i32, ptr @hf_zbee_apf_count, align 4
  %21 = and i32 %16, 255
  %22 = tail call ptr @proto_tree_add_uint(ptr noundef %13, i32 noundef %20, ptr noundef %0, i32 noundef 0, i32 noundef 1, i32 noundef %21)
  %23 = load i32, ptr @hf_zbee_apf_type, align 4
  %24 = and i32 %.fr, 255
  %25 = tail call ptr @proto_tree_add_uint(ptr noundef %13, i32 noundef %23, ptr noundef %0, i32 noundef 0, i32 noundef 1, i32 noundef %24)
  %26 = icmp ne ptr %.045, null
  %27 = icmp ne i32 %21, 0
  %or.cond = and i1 %26, %27
  br i1 %or.cond, label %.lr.ph, label %.loopexit

.lr.ph:                                           ; preds = %8
  %28 = icmp eq i32 %24, 1
  br i1 %28, label %.lr.ph.split.us, label %zbee_apf_transaction_len.exit

.lr.ph.split.us:                                  ; preds = %.lr.ph, %zbee_apf_transaction_len.exit.us
  %.148.us = phi i32 [ %53, %zbee_apf_transaction_len.exit.us ], [ 1, %.lr.ph ]
  %.04447.us = phi i32 [ %54, %zbee_apf_transaction_len.exit.us ], [ 0, %.lr.ph ]
  %29 = add i32 %.148.us, 1
  %30 = tail call zeroext i8 @tvb_get_uint8(ptr noundef %0, i32 noundef %29)
  %31 = zext i8 %30 to i32
  %32 = tail call i32 @zbee_get_bit_field(i32 noundef %31, i32 noundef 15)
  %33 = tail call zeroext i8 @tvb_get_uint8(ptr noundef %0, i32 noundef %29)
  %34 = zext i8 %33 to i32
  %35 = tail call i32 @zbee_get_bit_field(i32 noundef %34, i32 noundef 240)
  %trunc.i.us = trunc i32 %32 to i8
  switch i8 %trunc.i.us, label %50 [
    i8 9, label %zbee_apf_transaction_len.exit.us
    i8 10, label %zbee_apf_transaction_len.exit.us
    i8 8, label %36
    i8 1, label %37
    i8 5, label %37
    i8 2, label %37
    i8 6, label %37
  ]

36:                                               ; preds = %.lr.ph.split.us
  br label %37

37:                                               ; preds = %36, %.lr.ph.split.us, %.lr.ph.split.us, %.lr.ph.split.us, %.lr.ph.split.us
  %.0.i.us = phi i32 [ 4, %.lr.ph.split.us ], [ 4, %.lr.ph.split.us ], [ 4, %.lr.ph.split.us ], [ 4, %.lr.ph.split.us ], [ 5, %36 ]
  %trunc23.i.us = trunc i32 %35 to i8
  switch i8 %trunc23.i.us, label %zbee_apf_transaction_len.exit.us [
    i8 12, label %48
    i8 13, label %48
    i8 3, label %46
    i8 4, label %46
    i8 11, label %46
    i8 1, label %44
    i8 2, label %44
    i8 14, label %38
    i8 15, label %38
  ]

38:                                               ; preds = %37, %37
  %39 = add i32 %.0.i.us, %.148.us
  %40 = tail call zeroext i8 @tvb_get_uint8(ptr noundef %0, i32 noundef %39)
  %41 = zext i8 %40 to i32
  %42 = add nuw nsw i32 %.0.i.us, 1
  %43 = add nuw nsw i32 %42, %41
  br label %zbee_apf_transaction_len.exit.us

44:                                               ; preds = %37, %37
  %45 = add nuw nsw i32 %.0.i.us, 1
  br label %zbee_apf_transaction_len.exit.us

46:                                               ; preds = %37, %37, %37
  %47 = or disjoint i32 %.0.i.us, 2
  br label %zbee_apf_transaction_len.exit.us

48:                                               ; preds = %37, %37
  %49 = add nuw nsw i32 %.0.i.us, 4
  br label %zbee_apf_transaction_len.exit.us

50:                                               ; preds = %.lr.ph.split.us
  br label %zbee_apf_transaction_len.exit.us

zbee_apf_transaction_len.exit.us:                 ; preds = %50, %48, %46, %44, %38, %37, %.lr.ph.split.us, %.lr.ph.split.us
  %.122.i.us = phi i32 [ 4, %50 ], [ 5, %.lr.ph.split.us ], [ 5, %.lr.ph.split.us ], [ %.0.i.us, %37 ], [ %43, %38 ], [ %45, %44 ], [ %47, %46 ], [ %49, %48 ]
  %51 = tail call ptr @tvb_new_subset_length(ptr noundef %0, i32 noundef %.148.us, i32 noundef %.122.i.us)
  %52 = tail call i32 @call_dissector_with_data(ptr noundef nonnull %.045, ptr noundef %51, ptr noundef %1, ptr noundef %2, ptr noundef %3)
  %53 = add i32 %.122.i.us, %.148.us
  %54 = add nuw nsw i32 %.04447.us, 1
  %exitcond52.not = icmp eq i32 %54, %21
  br i1 %exitcond52.not, label %.loopexit, label %.lr.ph.split.us, !llvm.loop !8

zbee_apf_transaction_len.exit:                    ; preds = %.lr.ph, %zbee_apf_transaction_len.exit
  %.148 = phi i32 [ %61, %zbee_apf_transaction_len.exit ], [ 1, %.lr.ph ]
  %.04447 = phi i32 [ %62, %zbee_apf_transaction_len.exit ], [ 0, %.lr.ph ]
  %55 = add i32 %.148, 1
  %56 = tail call zeroext i8 @tvb_get_uint8(ptr noundef %0, i32 noundef %55)
  %57 = zext i8 %56 to i32
  %58 = add nuw nsw i32 %57, 2
  %59 = tail call ptr @tvb_new_subset_length(ptr noundef %0, i32 noundef %.148, i32 noundef %58)
  %60 = tail call i32 @call_dissector_with_data(ptr noundef nonnull %.045, ptr noundef %59, ptr noundef %1, ptr noundef %2, ptr noundef %3)
  %61 = add i32 %58, %.148
  %62 = add nuw nsw i32 %.04447, 1
  %exitcond.not = icmp eq i32 %62, %21
  br i1 %exitcond.not, label %.loopexit, label %zbee_apf_transaction_len.exit, !llvm.loop !8

.loopexit:                                        ; preds = %zbee_apf_transaction_len.exit, %zbee_apf_transaction_len.exit.us, %8
  %.0 = phi i32 [ 1, %8 ], [ %53, %zbee_apf_transaction_len.exit.us ], [ %61, %zbee_apf_transaction_len.exit ]
  %63 = tail call i32 @tvb_captured_length(ptr noundef %0)
  %64 = icmp ult i32 %.0, %63
  br i1 %64, label %65, label %68

65:                                               ; preds = %.loopexit
  %66 = tail call ptr @tvb_new_subset_remaining(ptr noundef %0, i32 noundef %.0)
  %67 = tail call i32 @call_data_dissector(ptr noundef %66, ptr noundef %1, ptr noundef %2)
  br label %68

68:                                               ; preds = %65, %.loopexit
  %69 = tail call i32 @tvb_captured_length(ptr noundef %0)
  ret i32 %69
}